target datalayout = "e-m:e-p270:32:32-p271:32:32-p272:64:64-i64:64-i128:128-f80:128-n8:16:32:64-S128"
target triple = "x86_64-pc-linux-gnu"

%struct.CK_FUNCTION_LIST = type { %struct.CK_VERSION, ptr, ptr, ptr, ptr, ptr, ptr, ptr, ptr, ptr, ptr, ptr, ptr, ptr, ptr, ptr, ptr, ptr, ptr, ptr, ptr, ptr, ptr, ptr, ptr, ptr, ptr, ptr, ptr, ptr, ptr, ptr, ptr, ptr, ptr, ptr, ptr, ptr, ptr, ptr, ptr, ptr, ptr, ptr, ptr, ptr, ptr, ptr, ptr, ptr, ptr, ptr, ptr, ptr, ptr, ptr, ptr, ptr, ptr, ptr, ptr, ptr, ptr, ptr, ptr, ptr, ptr, ptr, ptr }
%struct.CK_VERSION = type { i8, i8 }
%struct.JNINativeInterface_ = type { ptr, ptr, ptr, ptr, ptr, ptr, ptr, ptr, ptr, ptr, ptr, ptr, ptr, ptr, ptr, ptr, ptr, ptr, ptr, ptr, ptr, ptr, ptr, ptr, ptr, ptr, ptr, ptr, ptr, ptr, ptr, ptr, ptr, ptr, ptr, ptr, ptr, ptr, ptr, ptr, ptr, ptr, ptr, ptr, ptr, ptr, ptr, ptr, ptr, ptr, ptr, ptr, ptr, ptr, ptr, ptr, ptr, ptr, ptr, ptr, ptr, ptr, ptr, ptr, ptr, ptr, ptr, ptr, ptr, ptr, ptr, ptr, ptr, ptr, ptr, ptr, ptr, ptr, ptr, ptr, ptr, ptr, ptr, ptr, ptr, ptr, ptr, ptr, ptr, ptr, ptr, ptr, ptr, ptr, ptr, ptr, ptr, ptr, ptr, ptr, ptr, ptr, ptr, ptr, ptr, ptr, ptr, ptr, ptr, ptr, ptr, ptr, ptr, ptr, ptr, ptr, ptr, ptr, ptr, ptr, ptr, ptr, ptr, ptr, ptr, ptr, ptr, ptr, ptr, ptr, ptr, ptr, ptr, ptr, ptr, ptr, ptr, ptr, ptr, ptr, ptr, ptr, ptr, ptr, ptr, ptr, ptr, ptr, ptr, ptr, ptr, ptr, ptr, ptr, ptr, ptr, ptr, ptr, ptr, ptr, ptr, ptr, ptr, ptr, ptr, ptr, ptr, ptr, ptr, ptr, ptr, ptr, ptr, ptr, ptr, ptr, ptr, ptr, ptr, ptr, ptr, ptr, ptr, ptr, ptr, ptr, ptr, ptr, ptr, ptr, ptr, ptr, ptr, ptr, ptr, ptr, ptr, ptr, ptr, ptr, ptr, ptr, ptr, ptr, ptr, ptr, ptr, ptr, ptr, ptr, ptr, ptr, ptr, ptr, ptr, ptr, ptr, ptr, ptr, ptr, ptr, ptr, ptr, ptr, ptr, ptr, ptr, ptr, ptr, ptr, ptr, ptr, ptr, ptr, ptr }
%struct.CK_MECHANISM = type { i64, ptr, i64 }

; Function Attrs: nounwind uwtable
define i64 @Java_sun_security_pkcs11_wrapper_PKCS11_C_1GenerateKey(ptr noundef %0, ptr noundef %1, i64 noundef %2, ptr noundef %3, ptr noundef %4) #0 {
  %6 = alloca i64, align 8
  %7 = alloca ptr, align 8
  %8 = alloca ptr, align 8
  %9 = alloca i64, align 8
  %10 = alloca ptr, align 8
  %11 = alloca ptr, align 8
  %12 = alloca i64, align 8
  %13 = alloca ptr, align 8
  %14 = alloca ptr, align 8
  %15 = alloca i64, align 8
  %16 = alloca i64, align 8
  %17 = alloca i64, align 8
  %18 = alloca i64, align 8
  %19 = alloca ptr, align 8
  store ptr %0, ptr %7, align 8
  store ptr %1, ptr %8, align 8
  store i64 %2, ptr %9, align 8
  store ptr %3, ptr %10, align 8
  store ptr %4, ptr %11, align 8
  store ptr null, ptr %13, align 8
  store ptr null, ptr %14, align 8
  store i64 0, ptr %15, align 8
  store i64 0, ptr %16, align 8
  store i64 0, ptr %17, align 8
  %20 = load ptr, ptr %7, align 8
  %21 = load ptr, ptr %8, align 8
  %22 = call ptr @getFunctionList(ptr noundef %20, ptr noundef %21)
  store ptr %22, ptr %19, align 8
  %23 = load ptr, ptr %19, align 8
  %24 = icmp eq ptr %23, null
  br i1 %24, label %25, label %26

25:                                               ; preds = %5
  store i64 0, ptr %6, align 8
  br label %80

26:                                               ; preds = %5
  %27 = load i64, ptr %9, align 8
  store i64 %27, ptr %12, align 8
  %28 = load ptr, ptr %7, align 8
  %29 = load ptr, ptr %10, align 8
  %30 = call ptr @jMechanismToCKMechanismPtr(ptr noundef %28, ptr noundef %29)
  store ptr %30, ptr %13, align 8
  %31 = load ptr, ptr %7, align 8
  %32 = load ptr, ptr %31, align 8
  %33 = getelementptr inbounds %struct.JNINativeInterface_, ptr %32, i32 0, i32 228
  %34 = load ptr, ptr %33, align 8
  %35 = load ptr, ptr %7, align 8
  %36 = call zeroext i8 %34(ptr noundef %35)
  %37 = icmp ne i8 %36, 0
  br i1 %37, label %38, label %39

38:                                               ; preds = %26
  store i64 0, ptr %6, align 8
  br label %80

39:                                               ; preds = %26
  %40 = load ptr, ptr %7, align 8
  %41 = load ptr, ptr %11, align 8
  call void @jAttributeArrayToCKAttributeArray(ptr noundef %40, ptr noundef %41, ptr noundef %14, ptr noundef %15)
  %42 = load ptr, ptr %7, align 8
  %43 = load ptr, ptr %42, align 8
  %44 = getelementptr inbounds %struct.JNINativeInterface_, ptr %43, i32 0, i32 228
  %45 = load ptr, ptr %44, align 8
  %46 = load ptr, ptr %7, align 8
  %47 = call zeroext i8 %45(ptr noundef %46)
  %48 = icmp ne i8 %47, 0
  br i1 %48, label %49, label %50

49:                                               ; preds = %39
  br label %74

50:                                               ; preds = %39
  %51 = load ptr, ptr %19, align 8
  %52 = getelementptr inbounds %struct.CK_FUNCTION_LIST, ptr %51, i32 0, i32 59
  %53 = load ptr, ptr %52, align 8
  %54 = load i64, ptr %12, align 8
  %55 = load ptr, ptr %13, align 8
  %56 = load ptr, ptr %14, align 8
  %57 = load i64, ptr %15, align 8
  %58 = call i64 %53(i64 noundef %54, ptr noundef %55, ptr noundef %56, i64 noundef %57, ptr noundef %16)
  store i64 %58, ptr %18, align 8
  %59 = load ptr, ptr %7, align 8
  %60 = load i64, ptr %18, align 8
  %61 = call i64 @ckAssertReturnValueOK(ptr noundef %59, i64 noundef %60)
  %62 = icmp eq i64 %61, 0
  br i1 %62, label %63, label %73

63:                                               ; preds = %50
  %64 = load i64, ptr %16, align 8
  store i64 %64, ptr %17, align 8
  %65 = load ptr, ptr %13, align 8
  %66 = getelementptr inbounds %struct.CK_MECHANISM, ptr %65, i32 0, i32 0
  %67 = load i64, ptr %66, align 8
  switch i64 %67, label %72 [
    i64 928, label %68
    i64 929, label %68
    i64 930, label %68
    i64 931, label %68
    i64 932, label %68
    i64 933, label %68
  ]

68:                                               ; preds = %63, %63, %63, %63, %63, %63
  %69 = load ptr, ptr %7, align 8
  %70 = load ptr, ptr %13, align 8
  %71 = load ptr, ptr %10, align 8
  call void @copyBackPBEInitializationVector(ptr noundef %69, ptr noundef %70, ptr noundef %71)
  br label %72

72:                                               ; preds = %68, %63
  br label %73

73:                                               ; preds = %72, %50
  br label %74

74:                                               ; preds = %73, %49
  %75 = load ptr, ptr %13, align 8
  call void @freeCKMechanismPtr(ptr noundef %75)
  %76 = load ptr, ptr %14, align 8
  %77 = load i64, ptr %15, align 8
  %78 = trunc i64 %77 to i32
  call void @freeCKAttributeArray(ptr noundef %76, i32 noundef %78)
  %79 = load i64, ptr %17, align 8
  store i64 %79, ptr %6, align 8
  br label %80

80:                                               ; preds = %74, %38, %25
  %81 = load i64, ptr %6, align 8
  ret i64 %81
}