; Function Attrs: nounwind uwtable
define i64 @Java_sun_security_pkcs11_wrapper_PKCS11_C_1GenerateKey(ptr noundef %0, ptr noundef %1, i64 noundef %2, ptr noundef %3, ptr noundef %4) local_unnamed_addr #0 {
  %6 = alloca ptr, align 8
  %7 = alloca i64, align 8
  %8 = alloca i64, align 8
  store ptr null, ptr %6, align 8
  store i64 0, ptr %7, align 8
  store i64 0, ptr %8, align 8
  %9 = tail call ptr @getFunctionList(ptr noundef %0, ptr noundef %1) #5
  %10 = icmp eq ptr %9, null
  br i1 %10, label %38, label %11

11:                                               ; preds = %5
  %12 = tail call ptr @jMechanismToCKMechanismPtr(ptr noundef %0, ptr noundef %3) #5
  %13 = load ptr, ptr %0, align 8
  %14 = getelementptr inbounds i8, ptr %13, i64 1824
  %15 = load ptr, ptr %14, align 8
  %16 = tail call zeroext i8 %15(ptr noundef nonnull %0) #5
  %.not = icmp eq i8 %16, 0
  br i1 %.not, label %17, label %38

17:                                               ; preds = %11
  call void @jAttributeArrayToCKAttributeArray(ptr noundef nonnull %0, ptr noundef %4, ptr noundef nonnull %6, ptr noundef nonnull %7) #5
  %18 = load ptr, ptr %0, align 8
  %19 = getelementptr inbounds i8, ptr %18, i64 1824
  %20 = load ptr, ptr %19, align 8
  %21 = call zeroext i8 %20(ptr noundef nonnull %0) #5
  %.not25 = icmp eq i8 %21, 0
  br i1 %.not25, label %22, label %34

22:                                               ; preds = %17
  %23 = getelementptr inbounds i8, ptr %9, i64 472
  %24 = load ptr, ptr %23, align 8
  %25 = load ptr, ptr %6, align 8
  %26 = load i64, ptr %7, align 8
  %27 = call i64 %24(i64 noundef %2, ptr noundef %12, ptr noundef %25, i64 noundef %26, ptr noundef nonnull %8) #5
  %28 = call i64 @ckAssertReturnValueOK(ptr noundef nonnull %0, i64 noundef %27) #5
  %29 = icmp eq i64 %28, 0
  br i1 %29, label %30, label %34

30:                                               ; preds = %22
  %31 = load i64, ptr %8, align 8
  %32 = load i64, ptr %12, align 8
  %.off = add i64 %32, -928
  %switch = icmp ult i64 %.off, 6
  br i1 %switch, label %33, label %34

33:                                               ; preds = %30
  call void @copyBackPBEInitializationVector(ptr noundef nonnull %0, ptr noundef nonnull %12, ptr noundef %3) #5
  br label %34

34:                                               ; preds = %30, %22, %33, %17
  %.023 = phi i64 [ 0, %17 ], [ %31, %30 ], [ %31, %33 ], [ 0, %22 ]
  call void @freeCKMechanismPtr(ptr noundef %12) #5
  %35 = load ptr, ptr %6, align 8
  %36 = load i64, ptr %7, align 8
  %37 = trunc i64 %36 to i32
  call void @freeCKAttributeArray(ptr noundef %35, i32 noundef %37) #5
  br label %38

38:                                               ; preds = %11, %5, %34
  %.0 = phi i64 [ %.023, %34 ], [ 0, %5 ], [ 0, %11 ]
  ret i64 %.0
}